Certificate:
    Data:
        Version: 3 (0x2)
        Serial Number: 1 (0x1)
    Signature Algorithm: sha256WithRSAEncryption
        Issuer: C=US, ST=Unset, L=Unset, O=Unset, CN=www.example.com
        Validity
            Not Before: Feb 15 22:34:52 2015 GMT
            Not After : Feb 12 22:34:52 2025 GMT
        Subject: C=US, ST=Unset, O=Unset, CN=www.example.com
        Subject Public Key Info:
            Public Key Algorithm: rsaEncryption
                Public-Key: (2048 bit)
                Modulus:
                    00:d6:37:2f:e4:eb:b8:36:ba:a9:d1:15:2c:da:9e:
                    ef:bc:15:a0:a1:00:98:ff:82:76:12:8d:fe:ac:84:
                    a2:00:98:ad:ec:44:68:fd:f8:11:3b:80:5e:88:c3:
                    53:25:36:5f:86:f3:8e:a9:cb:58:1a:94:d9:3a:a1:
                    c8:14:67:38:20:e1:08:f0:48:99:78:1a:89:70:35:
                    87:40:ed:77:7a:a7:4b:24:ed:75:46:64:da:bf:de:
                    4e:9a:0b:88:7e:0a:d6:ce:ab:fd:4d:84:da:d4:0f:
                    fa:34:cd:bd:74:e8:21:cc:ec:aa:8e:75:9b:8a:9e:
                    db:91:a9:36:ec:59:d7:a5:5c:72:ba:76:fe:e9:92:
                    c5:ea:1c:5f:54:5a:af:5a:b9:0d:b7:3d:0a:13:4f:
                    a0:fb:7e:2f:d4:2b:ad:4d:4f:8e:b6:30:bb:d3:4f:
                    96:95:bc:58:f9:b2:6a:e7:70:e9:9a:8a:db:e7:e2:
                    c2:5d:d2:e4:5c:15:b7:88:c7:68:6b:2d:10:f5:0c:
                    56:03:57:9e:5c:8e:70:5b:93:82:1b:cd:bb:c4:a3:
                    0f:fb:70:e4:d3:fd:15:e1:5f:7e:cd:5c:7e:96:1c:
                    09:33:a0:9e:55:ec:f9:c7:0d:c8:5e:13:50:ea:f6:
                    ba:00:d1:93:d8:4c:c0:8b:22:88:df:11:0c:70:c1:
                    13:8b
                Exponent: 65537 (0x10001)
        X509v3 extensions:
            X509v3 Basic Constraints: 
                CA:FALSE
            X509v3 Subject Key Identifier: 
                3D:6C:03:4C:19:40:4A:EC:70:DE:18:A3:47:AF:DF:39:47:77:CB:09
            X509v3 Authority Key Identifier: 
                keyid:B8:1D:22:5E:68:62:3E:16:3E:3C:5E:8A:9E:29:49:03:AF:5C:0F:0D

    Signature Algorithm: sha256WithRSAEncryption
         78:bc:67:cb:64:c3:31:8f:4f:cc:c4:a0:ae:44:29:c8:04:8e:
         79:35:55:97:1d:08:59:df:78:f2:8f:a8:24:81:a9:8e:cf:8a:
         44:0b:91:c4:ef:dd:2a:94:d3:f9:0d:33:d0:0f:9f:03:f9:9c:
         7b:a3:0f:7e:56:68:84:c4:a5:fd:32:85:35:56:a3:dc:3c:b8:
         cf:13:8e:e3:49:3e:d0:7b:15:bc:08:10:56:4b:b7:22:f8:07:
         d7:e6:fc:e7:fa:bd:b4:45:f4:df:8e:47:da:4e:3d:71:14:7e:
         d7:85:bd:0f:89:c9:17:a7:9e:29:ad:58:4e:e4:93:5c:5e:3f:
         09:44:1c:e9:d6:05:f0:ba:9e:a5:e6:06:28:16:a4:00:5f:09:
         58:8d:f5:5f:a8:af:4b:1b:04:52:4f:59:16:ab:db:e7:90:f1:
         3a:12:ed:89:fb:88:01:b0:5d:2b:2e:5a:d9:08:ce:58:da:13:
         37:a7:fc:b7:e5:cc:cf:41:18:58:3e:ee:63:42:bb:a3:7d:f9:
         a5:c5:11:b0:f5:fd:28:92:bf:92:ad:ec:ce:af:06:e7:ca:36:
         94:16:9e:c8:60:99:8a:1f:f7:f0:5a:4a:40:3b:a1:40:ae:e7:
         fc:78:fd:ed:45:41:ca:81:58:fd:2e:3c:8a:32:25:ef:80:89:
         51:e7:85:2d
-----BEGIN CERTIFICATE-----
MIIDZjCCAk6gAwIBAgIBATANBgkqhkiG9w0BAQsFADBXMQswCQYDVQQGEwJVUzEO
MAwGA1UECAwFVW5zZXQxDjAMBgNVBAcMBVVuc2V0MQ4wDAYDVQQKDAVVbnNldDEY
MBYGA1UEAwwPd3d3LmV4YW1wbGUuY29tMB4XDTE1MDIxNTIyMzQ1MloXDTI1MDIx
MjIyMzQ1MlowRzELMAkGA1UEBhMCVVMxDjAMBgNVBAgMBVVuc2V0MQ4wDAYDVQQK
DAVVbnNldDEYMBYGA1UEAwwPd3d3LmV4YW1wbGUuY29tMIIBIjANBgkqhkiG9w0B
AQEFAAOCAQ8AMIIBCgKCAQEA1jcv5Ou4Nrqp0RUs2p7vvBWgoQCY/4J2Eo3+rISi
AJit7ERo/fgRO4BeiMNTJTZfhvOOqctYGpTZOqHIFGc4IOEI8EiZeBqJcDWHQO13
eqdLJO11RmTav95OmguIfgrWzqv9TYTa1A/6NM29dOghzOyqjnWbip7bkak27FnX
pVxyunb+6ZLF6hxfVFqvWrkNtz0KE0+g+34v1CutTU+OtjC700+WlbxY+bJq53Dp
morb5+LCXdLkXBW3iMdoay0Q9QxWA1eeXI5wW5OCG827xKMP+3Dk0/0V4V9+zVx+
lhwJM6CeVez5xw3IXhNQ6va6ANGT2EzAiyKI3xEMcMETiwIDAQABo00wSzAJBgNV
HRMEAjAAMB0GA1UdDgQWBBQ9bANMGUBK7HDeGKNHr985R3fLCTAfBgNVHSMEGDAW
gBS4HSJeaGI+Fj48XoqeKUkDr1wPDTANBgkqhkiG9w0BAQsFAAOCAQEAeLxny2TD
MY9PzMSgrkQpyASOeTVVlx0IWd948o+oJIGpjs+KRAuRxO/dKpTT+Q0z0A+fA/mc
e6MPflZohMSl/TKFNVaj3Dy4zxOO40k+0HsVvAgQVku3IvgH1+b85/q9tEX0345H
2k49cRR+14W9D4nJF6eeKa1YTuSTXF4/CUQc6dYF8LqepeYGKBakAF8JWI31X6iv
SxsEUk9ZFqvb55DxOhLtifuIAbBdKy5a2QjOWNoTN6f8t+XMz0EYWD7uY0K7o335
pcURsPX9KJK/kq3szq8G58o2lBaeyGCZih/38FpKQDuhQK7n/Hj97UVByoFY/S48
ijIl74CJUeeFLQ==
-----END CERTIFICATE-----
